; Function Attrs: nounwind uwtable
define range(i32 -344, 1) i32 @wolfSSL_CTX_no_ticket_TLSv13(ptr noundef readonly captures(address_is_null) %0) local_unnamed_addr #0 {
  %2 = icmp eq ptr %0, null
  br i1 %2, label %12, label %3

3:                                                ; preds = %1
  %4 = load ptr, ptr %0, align 8, !tbaa !180
  %5 = load i16, ptr %4, align 1
  %6 = tail call i32 @IsAtLeastTLSv1_3(i16 %5) #11
  %.not = icmp eq i32 %6, 0
  br i1 %.not, label %12, label %7

7:                                                ; preds = %3
  %8 = load ptr, ptr %0, align 8, !tbaa !180
  %9 = getelementptr inbounds nuw i8, ptr %8, i64 2
  %10 = load i8, ptr %9, align 1, !tbaa !181
  %11 = icmp eq i8 %10, 1
  %. = select i1 %11, i32 -344, i32 0
  br label %12

12:                                               ; preds = %7, %1, %3
  %.0 = phi i32 [ -173, %3 ], [ -173, %1 ], [ %., %7 ]
  ret i32 %.0
}